target datalayout = "e-m:e-p270:32:32-p271:32:32-p272:64:64-i64:64-i128:128-f80:128-n8:16:32:64-S128"
target triple = "x86_64-pc-linux-gnu"

%struct.sentinelRedisInstance = type { i32, ptr, ptr, i64, ptr, ptr, i64, i64, i64, i64, i64, i64, i64, i64, i64, ptr, i32, i64, i64, ptr, ptr, i32, i32, ptr, ptr, i64, i32, i32, i64, ptr, ptr, i32, i32, i64, ptr, i64, i64, i32, i64, i64, i64, i64, ptr, ptr, ptr, ptr }

@.str.21 = private unnamed_addr constant [11 x i8] c"sentinel.c\00", align 1
@.str.442 = private unnamed_addr constant [37 x i8] c"ri->flags & SRI_FAILOVER_IN_PROGRESS\00", align 1
@.str.443 = private unnamed_addr constant [61 x i8] c"ri->failover_state <= SENTINEL_FAILOVER_STATE_WAIT_PROMOTION\00", align 1

; Function Attrs: nounwind uwtable
define dso_local void @sentinelAbortFailover(ptr noundef %0) #0 {
  %2 = alloca ptr, align 8
  store ptr %0, ptr %2, align 8, !tbaa !11
  %3 = load ptr, ptr %2, align 8, !tbaa !11
  %4 = getelementptr inbounds nuw %struct.sentinelRedisInstance, ptr %3, i32 0, i32 0
  %5 = load i32, ptr %4, align 8, !tbaa !34
  %6 = and i32 %5, 64
  %7 = icmp ne i32 %6, 0
  %8 = xor i1 %7, true
  %9 = xor i1 %8, true
  %10 = zext i1 %9 to i32
  %11 = sext i32 %10 to i64
  %12 = call i64 @llvm.expect.i64(i64 %11, i64 1)
  %13 = icmp ne i64 %12, 0
  br i1 %13, label %14, label %15

14:                                               ; preds = %1
  br label %17

15:                                               ; preds = %1
  call void @_serverAssert(ptr noundef @.str.442, ptr noundef @.str.21, i32 noundef 5340)
  call void @abort() #15
  unreachable

16:                                               ; No predecessors!
  br label %17

17:                                               ; preds = %16, %14
  %18 = load ptr, ptr %2, align 8, !tbaa !11
  %19 = getelementptr inbounds nuw %struct.sentinelRedisInstance, ptr %18, i32 0, i32 37
  %20 = load i32, ptr %19, align 8, !tbaa !193
  %21 = icmp sle i32 %20, 4
  %22 = xor i1 %21, true
  %23 = xor i1 %22, true
  %24 = zext i1 %23 to i32
  %25 = sext i32 %24 to i64
  %26 = call i64 @llvm.expect.i64(i64 %25, i64 1)
  %27 = icmp ne i64 %26, 0
  br i1 %27, label %28, label %29

28:                                               ; preds = %17
  br label %31

29:                                               ; preds = %17
  call void @_serverAssert(ptr noundef @.str.443, ptr noundef @.str.21, i32 noundef 5341)
  call void @abort() #15
  unreachable

30:                                               ; No predecessors!
  br label %31

31:                                               ; preds = %30, %28
  %32 = load ptr, ptr %2, align 8, !tbaa !11
  %33 = getelementptr inbounds nuw %struct.sentinelRedisInstance, ptr %32, i32 0, i32 0
  %34 = load i32, ptr %33, align 8, !tbaa !34
  %35 = and i32 %34, -2113
  store i32 %35, ptr %33, align 8, !tbaa !34
  %36 = load ptr, ptr %2, align 8, !tbaa !11
  %37 = getelementptr inbounds nuw %struct.sentinelRedisInstance, ptr %36, i32 0, i32 37
  store i32 0, ptr %37, align 8, !tbaa !193
  %38 = call i64 @mstime()
  %39 = load ptr, ptr %2, align 8, !tbaa !11
  %40 = getelementptr inbounds nuw %struct.sentinelRedisInstance, ptr %39, i32 0, i32 38
  store i64 %38, ptr %40, align 8, !tbaa !194
  %41 = load ptr, ptr %2, align 8, !tbaa !11
  %42 = getelementptr inbounds nuw %struct.sentinelRedisInstance, ptr %41, i32 0, i32 42
  %43 = load ptr, ptr %42, align 8, !tbaa !36
  %44 = icmp ne ptr %43, null
  br i1 %44, label %45, label %54

45:                                               ; preds = %31
  %46 = load ptr, ptr %2, align 8, !tbaa !11
  %47 = getelementptr inbounds nuw %struct.sentinelRedisInstance, ptr %46, i32 0, i32 42
  %48 = load ptr, ptr %47, align 8, !tbaa !36
  %49 = getelementptr inbounds nuw %struct.sentinelRedisInstance, ptr %48, i32 0, i32 0
  %50 = load i32, ptr %49, align 8, !tbaa !34
  %51 = and i32 %50, -129
  store i32 %51, ptr %49, align 8, !tbaa !34
  %52 = load ptr, ptr %2, align 8, !tbaa !11
  %53 = getelementptr inbounds nuw %struct.sentinelRedisInstance, ptr %52, i32 0, i32 42
  store ptr null, ptr %53, align 8, !tbaa !36
  br label %54

54:                                               ; preds = %45, %31
  ret void
}