; Function Attrs: nounwind uwtable
define dso_local void @sentinelAbortFailover(ptr noundef captures(none) %0) local_unnamed_addr #0 {
  %2 = load i32, ptr %0, align 8, !tbaa !34
  %3 = and i32 %2, 64
  %.not = icmp eq i32 %3, 0
  br i1 %.not, label %4, label %5, !prof !144

4:                                                ; preds = %1
  tail call void @_serverAssert(ptr noundef nonnull @.str.442, ptr noundef nonnull @.str.21, i32 noundef 5340) #30
  tail call void @abort() #35
  unreachable

5:                                                ; preds = %1
  %6 = getelementptr inbounds nuw i8, ptr %0, i64 272
  %7 = load i32, ptr %6, align 8, !tbaa !169
  %8 = icmp slt i32 %7, 5
  br i1 %8, label %10, label %9, !prof !103

9:                                                ; preds = %5
  tail call void @_serverAssert(ptr noundef nonnull @.str.443, ptr noundef nonnull @.str.21, i32 noundef 5341) #30
  tail call void @abort() #35
  unreachable

10:                                               ; preds = %5
  %11 = and i32 %2, -2113
  store i32 %11, ptr %0, align 8, !tbaa !34
  store i32 0, ptr %6, align 8, !tbaa !169
  %12 = tail call i64 @mstime() #30
  %13 = getelementptr inbounds nuw i8, ptr %0, i64 280
  store i64 %12, ptr %13, align 8, !tbaa !243
  %14 = getelementptr inbounds nuw i8, ptr %0, i64 312
  %15 = load ptr, ptr %14, align 8, !tbaa !36
  %.not8 = icmp eq ptr %15, null
  br i1 %.not8, label %19, label %16

16:                                               ; preds = %10
  %17 = load i32, ptr %15, align 8, !tbaa !34
  %18 = and i32 %17, -129
  store i32 %18, ptr %15, align 8, !tbaa !34
  store ptr null, ptr %14, align 8, !tbaa !36
  br label %19

19:                                               ; preds = %16, %10
  ret void
}